target datalayout = "e-m:e-p270:32:32-p271:32:32-p272:64:64-i64:64-i128:128-f80:128-n8:16:32:64-S128"
target triple = "x86_64-pc-linux-gnu"

%struct.AVFilterContext = type { ptr, ptr, ptr, ptr, ptr, i32, ptr, ptr, i32, ptr, ptr, i32, i32, ptr, ptr, ptr, ptr, i32, ptr, i32, i32 }
%struct.FIREqualizerContext = type { ptr, ptr, ptr, ptr, ptr, ptr, ptr, ptr, ptr, ptr, ptr, ptr, ptr, ptr, ptr, i32, i32, i32, ptr, ptr, ptr, ptr, ptr, ptr, ptr, ptr, ptr, ptr, ptr, i32, i32, i64, i32, i32, ptr, ptr, ptr, ptr, double, double, i32, i32, i32, i32, i32, ptr, i32, i32, i32, i32, i32, [4096 x %struct.GainEntry] }
%struct.GainEntry = type { double, double }
%struct.AVRational = type { i32, i32 }
%struct.AVFilterLink = type { ptr, ptr, ptr, ptr, i32, i32, i32, i32, %struct.AVRational, i32, i32, i32, %struct.AVChannelLayout, %struct.AVRational, ptr, i32, %struct.AVFilterFormatsConfig, %struct.AVFilterFormatsConfig }
%struct.AVChannelLayout = type { i32, i32, %union.anon.1, ptr }
%union.anon.1 = type { i64 }
%struct.AVFilterFormatsConfig = type { ptr, ptr, ptr, ptr, ptr }
%struct.AVFrame = type { [8 x ptr], [8 x i32], ptr, i32, i32, i32, i32, i32, %struct.AVRational, i64, i64, %struct.AVRational, i32, ptr, i32, i32, [8 x ptr], ptr, i32, ptr, i32, i32, i32, i32, i32, i32, i32, i64, ptr, i32, ptr, ptr, i64, i64, i64, i64, ptr, %struct.AVChannelLayout, i64 }

; Function Attrs: nounwind uwtable
define internal i32 @request_frame(ptr noundef %0) #1 {
  %2 = alloca i32, align 4
  %3 = alloca ptr, align 8
  %4 = alloca ptr, align 8
  %5 = alloca ptr, align 8
  %6 = alloca i32, align 4
  %7 = alloca ptr, align 8
  %8 = alloca i32, align 4
  store ptr %0, ptr %3, align 8, !tbaa !36
  call void @llvm.lifetime.start.p0(i64 8, ptr %4) #12
  %9 = load ptr, ptr %3, align 8, !tbaa !36
  %10 = getelementptr inbounds nuw %struct.AVFilterLink, ptr %9, i32 0, i32 0
  %11 = load ptr, ptr %10, align 8, !tbaa !171
  store ptr %11, ptr %4, align 8, !tbaa !4
  call void @llvm.lifetime.start.p0(i64 8, ptr %5) #12
  %12 = load ptr, ptr %4, align 8, !tbaa !4
  %13 = getelementptr inbounds nuw %struct.AVFilterContext, ptr %12, i32 0, i32 9
  %14 = load ptr, ptr %13, align 8, !tbaa !9
  store ptr %14, ptr %5, align 8, !tbaa !22
  call void @llvm.lifetime.start.p0(i64 4, ptr %6) #12
  %15 = load ptr, ptr %4, align 8, !tbaa !4
  %16 = getelementptr inbounds nuw %struct.AVFilterContext, ptr %15, i32 0, i32 4
  %17 = load ptr, ptr %16, align 8, !tbaa !131
  %18 = getelementptr inbounds ptr, ptr %17, i64 0
  %19 = load ptr, ptr %18, align 8, !tbaa !36
  %20 = call i32 @ff_request_frame(ptr noundef %19)
  store i32 %20, ptr %6, align 4, !tbaa !25
  %21 = load i32, ptr %6, align 4, !tbaa !25
  %22 = icmp eq i32 %21, -541478725
  br i1 %22, label %23, label %93

23:                                               ; preds = %1
  %24 = load ptr, ptr %5, align 8, !tbaa !22
  %25 = getelementptr inbounds nuw %struct.FIREqualizerContext, ptr %24, i32 0, i32 33
  %26 = load i32, ptr %25, align 4, !tbaa !78
  %27 = icmp sgt i32 %26, 0
  br i1 %27, label %28, label %93

28:                                               ; preds = %23
  %29 = load ptr, ptr %5, align 8, !tbaa !22
  %30 = getelementptr inbounds nuw %struct.FIREqualizerContext, ptr %29, i32 0, i32 32
  %31 = load i32, ptr %30, align 8, !tbaa !71
  %32 = icmp sgt i32 %31, 0
  br i1 %32, label %33, label %93

33:                                               ; preds = %28
  call void @llvm.lifetime.start.p0(i64 8, ptr %7) #12
  %34 = load ptr, ptr %3, align 8, !tbaa !36
  %35 = load ptr, ptr %5, align 8, !tbaa !22
  %36 = getelementptr inbounds nuw %struct.FIREqualizerContext, ptr %35, i32 0, i32 33
  %37 = load i32, ptr %36, align 4, !tbaa !78
  %38 = load ptr, ptr %5, align 8, !tbaa !22
  %39 = getelementptr inbounds nuw %struct.FIREqualizerContext, ptr %38, i32 0, i32 32
  %40 = load i32, ptr %39, align 8, !tbaa !71
  %41 = icmp sgt i32 %37, %40
  br i1 %41, label %42, label %46

42:                                               ; preds = %33
  %43 = load ptr, ptr %5, align 8, !tbaa !22
  %44 = getelementptr inbounds nuw %struct.FIREqualizerContext, ptr %43, i32 0, i32 32
  %45 = load i32, ptr %44, align 8, !tbaa !71
  br label %50

46:                                               ; preds = %33
  %47 = load ptr, ptr %5, align 8, !tbaa !22
  %48 = getelementptr inbounds nuw %struct.FIREqualizerContext, ptr %47, i32 0, i32 33
  %49 = load i32, ptr %48, align 4, !tbaa !78
  br label %50

50:                                               ; preds = %46, %42
  %51 = phi i32 [ %45, %42 ], [ %49, %46 ]
  %52 = call ptr @ff_get_audio_buffer(ptr noundef %34, i32 noundef %51)
  store ptr %52, ptr %7, align 8, !tbaa !38
  %53 = load ptr, ptr %7, align 8, !tbaa !38
  %54 = icmp ne ptr %53, null
  br i1 %54, label %56, label %55

55:                                               ; preds = %50
  store i32 -12, ptr %2, align 4
  store i32 1, ptr %8, align 4
  br label %90

56:                                               ; preds = %50
  %57 = load ptr, ptr %7, align 8, !tbaa !38
  %58 = getelementptr inbounds nuw %struct.AVFrame, ptr %57, i32 0, i32 2
  %59 = load ptr, ptr %58, align 8, !tbaa !55
  %60 = load ptr, ptr %7, align 8, !tbaa !38
  %61 = getelementptr inbounds nuw %struct.AVFrame, ptr %60, i32 0, i32 5
  %62 = load i32, ptr %61, align 8, !tbaa !60
  %63 = load ptr, ptr %3, align 8, !tbaa !36
  %64 = getelementptr inbounds nuw %struct.AVFilterLink, ptr %63, i32 0, i32 12
  %65 = getelementptr inbounds nuw %struct.AVChannelLayout, ptr %64, i32 0, i32 1
  %66 = load i32, ptr %65, align 4, !tbaa !49
  %67 = load ptr, ptr %7, align 8, !tbaa !38
  %68 = getelementptr inbounds nuw %struct.AVFrame, ptr %67, i32 0, i32 6
  %69 = load i32, ptr %68, align 4, !tbaa !172
  %70 = call i32 @av_samples_set_silence(ptr noundef %59, i32 noundef 0, i32 noundef %62, i32 noundef %66, i32 noundef %69)
  %71 = load ptr, ptr %5, align 8, !tbaa !22
  %72 = getelementptr inbounds nuw %struct.FIREqualizerContext, ptr %71, i32 0, i32 31
  %73 = load i64, ptr %72, align 8, !tbaa !66
  %74 = load ptr, ptr %7, align 8, !tbaa !38
  %75 = getelementptr inbounds nuw %struct.AVFrame, ptr %74, i32 0, i32 9
  store i64 %73, ptr %75, align 8, !tbaa !67
  %76 = load ptr, ptr %7, align 8, !tbaa !38
  %77 = getelementptr inbounds nuw %struct.AVFrame, ptr %76, i32 0, i32 5
  %78 = load i32, ptr %77, align 8, !tbaa !60
  %79 = load ptr, ptr %5, align 8, !tbaa !22
  %80 = getelementptr inbounds nuw %struct.FIREqualizerContext, ptr %79, i32 0, i32 33
  %81 = load i32, ptr %80, align 4, !tbaa !78
  %82 = sub nsw i32 %81, %78
  store i32 %82, ptr %80, align 4, !tbaa !78
  %83 = load ptr, ptr %4, align 8, !tbaa !4
  %84 = getelementptr inbounds nuw %struct.AVFilterContext, ptr %83, i32 0, i32 4
  %85 = load ptr, ptr %84, align 8, !tbaa !131
  %86 = getelementptr inbounds ptr, ptr %85, i64 0
  %87 = load ptr, ptr %86, align 8, !tbaa !36
  %88 = load ptr, ptr %7, align 8, !tbaa !38
  %89 = call i32 @filter_frame(ptr noundef %87, ptr noundef %88)
  store i32 %89, ptr %6, align 4, !tbaa !25
  store i32 0, ptr %8, align 4
  br label %90

90:                                               ; preds = %56, %55
  call void @llvm.lifetime.end.p0(i64 8, ptr %7) #12
  %91 = load i32, ptr %8, align 4
  switch i32 %91, label %95 [
    i32 0, label %92
  ]

92:                                               ; preds = %90
  br label %93

93:                                               ; preds = %92, %28, %23, %1
  %94 = load i32, ptr %6, align 4, !tbaa !25
  store i32 %94, ptr %2, align 4
  store i32 1, ptr %8, align 4
  br label %95

95:                                               ; preds = %93, %90
  call void @llvm.lifetime.end.p0(i64 4, ptr %6) #12
  call void @llvm.lifetime.end.p0(i64 8, ptr %5) #12
  call void @llvm.lifetime.end.p0(i64 8, ptr %4) #12
  %96 = load i32, ptr %2, align 4
  ret i32 %96
}