; Function Attrs: nounwind uwtable
define internal i32 @request_frame(ptr noundef %0) #1 {
  %2 = load ptr, ptr %0, align 8, !tbaa !150
  %3 = getelementptr inbounds nuw i8, ptr %2, i64 72
  %4 = load ptr, ptr %3, align 8, !tbaa !4
  %5 = getelementptr inbounds nuw i8, ptr %2, i64 32
  %6 = load ptr, ptr %5, align 8, !tbaa !117
  %7 = load ptr, ptr %6, align 8, !tbaa !65
  %8 = tail call i32 @ff_request_frame(ptr noundef %7) #14
  %9 = icmp eq i32 %8, -541478725
  br i1 %9, label %10, label %39

10:                                               ; preds = %1
  %11 = getelementptr inbounds nuw i8, ptr %4, i64 244
  %12 = load i32, ptr %11, align 4, !tbaa !70
  %13 = icmp sgt i32 %12, 0
  br i1 %13, label %14, label %39

14:                                               ; preds = %10
  %15 = getelementptr inbounds nuw i8, ptr %4, i64 240
  %16 = load i32, ptr %15, align 8, !tbaa !63
  %17 = icmp sgt i32 %16, 0
  br i1 %17, label %18, label %39

18:                                               ; preds = %14
  %. = tail call i32 @llvm.umin.i32(i32 %12, i32 %16)
  %19 = tail call ptr @ff_get_audio_buffer(ptr noundef nonnull %0, i32 noundef %.) #14
  %.not.not = icmp eq ptr %19, null
  br i1 %.not.not, label %39, label %20

20:                                               ; preds = %18
  %21 = getelementptr inbounds nuw i8, ptr %19, i64 96
  %22 = load ptr, ptr %21, align 8, !tbaa !49
  %23 = getelementptr inbounds nuw i8, ptr %19, i64 112
  %24 = load i32, ptr %23, align 8, !tbaa !54
  %25 = getelementptr inbounds nuw i8, ptr %0, i64 76
  %26 = load i32, ptr %25, align 4, !tbaa !41
  %27 = getelementptr inbounds nuw i8, ptr %19, i64 116
  %28 = load i32, ptr %27, align 4, !tbaa !151
  %29 = tail call i32 @av_samples_set_silence(ptr noundef %22, i32 noundef 0, i32 noundef %24, i32 noundef %26, i32 noundef %28) #14
  %30 = getelementptr inbounds nuw i8, ptr %4, i64 232
  %31 = load i64, ptr %30, align 8, !tbaa !58
  %32 = getelementptr inbounds nuw i8, ptr %19, i64 136
  store i64 %31, ptr %32, align 8, !tbaa !59
  %33 = load i32, ptr %23, align 8, !tbaa !54
  %34 = load i32, ptr %11, align 4, !tbaa !70
  %35 = sub nsw i32 %34, %33
  store i32 %35, ptr %11, align 4, !tbaa !70
  %36 = load ptr, ptr %5, align 8, !tbaa !117
  %37 = load ptr, ptr %36, align 8, !tbaa !65
  %38 = tail call i32 @filter_frame(ptr noundef %37, ptr noundef nonnull %19)
  br label %39

39:                                               ; preds = %20, %18, %1, %10, %14
  %.1 = phi i32 [ -541478725, %14 ], [ -541478725, %10 ], [ %8, %1 ], [ %38, %20 ], [ -12, %18 ]
  ret i32 %.1
}